target datalayout = "e-m:e-p270:32:32-p271:32:32-p272:64:64-i64:64-i128:128-f80:128-n8:16:32:64-S128"
target triple = "x86_64-pc-linux-gnu"

; Function Attrs: nounwind uwtable
define internal ptr @skip_tree_prefix(i32 noundef %0, ptr noundef %1, i32 noundef %2) #0 {
  %4 = alloca ptr, align 8
  %5 = alloca i32, align 4
  %6 = alloca ptr, align 8
  %7 = alloca i32, align 4
  %8 = alloca i32, align 4
  %9 = alloca i32, align 4
  %10 = alloca i32, align 4
  %11 = alloca i32, align 4
  store i32 %0, ptr %5, align 4, !tbaa !39
  store ptr %1, ptr %6, align 8, !tbaa !11
  store i32 %2, ptr %7, align 4, !tbaa !39
  call void @llvm.lifetime.start.p0(i64 4, ptr %8) #12
  call void @llvm.lifetime.start.p0(i64 4, ptr %9) #12
  %12 = load i32, ptr %5, align 4, !tbaa !39
  %13 = icmp ne i32 %12, 0
  br i1 %13, label %28, label %14

14:                                               ; preds = %3
  %15 = load i32, ptr %7, align 4, !tbaa !39
  %16 = icmp ne i32 %15, 0
  br i1 %16, label %17, label %24

17:                                               ; preds = %14
  %18 = load ptr, ptr %6, align 8, !tbaa !11
  %19 = getelementptr inbounds i8, ptr %18, i64 0
  %20 = load i8, ptr %19, align 1, !tbaa !57
  %21 = sext i8 %20 to i32
  %22 = icmp eq i32 %21, 47
  br i1 %22, label %23, label %24

23:                                               ; preds = %17
  br label %26

24:                                               ; preds = %17, %14
  %25 = load ptr, ptr %6, align 8, !tbaa !11
  br label %26

26:                                               ; preds = %24, %23
  %27 = phi ptr [ null, %23 ], [ %25, %24 ]
  store ptr %27, ptr %4, align 8
  store i32 1, ptr %10, align 4
  br label %67

28:                                               ; preds = %3
  %29 = load i32, ptr %5, align 4, !tbaa !39
  store i32 %29, ptr %8, align 4, !tbaa !39
  store i32 0, ptr %9, align 4, !tbaa !39
  br label %30

30:                                               ; preds = %63, %28
  %31 = load i32, ptr %9, align 4, !tbaa !39
  %32 = load i32, ptr %7, align 4, !tbaa !39
  %33 = icmp slt i32 %31, %32
  br i1 %33, label %34, label %66

34:                                               ; preds = %30
  call void @llvm.lifetime.start.p0(i64 4, ptr %11) #12
  %35 = load ptr, ptr %6, align 8, !tbaa !11
  %36 = load i32, ptr %9, align 4, !tbaa !39
  %37 = sext i32 %36 to i64
  %38 = getelementptr inbounds i8, ptr %35, i64 %37
  %39 = load i8, ptr %38, align 1, !tbaa !57
  %40 = sext i8 %39 to i32
  store i32 %40, ptr %11, align 4, !tbaa !39
  %41 = load i32, ptr %11, align 4, !tbaa !39
  %42 = icmp eq i32 %41, 47
  br i1 %42, label %43, label %59

43:                                               ; preds = %34
  %44 = load i32, ptr %8, align 4, !tbaa !39
  %45 = add nsw i32 %44, -1
  store i32 %45, ptr %8, align 4, !tbaa !39
  %46 = icmp sle i32 %45, 0
  br i1 %46, label %47, label %59

47:                                               ; preds = %43
  %48 = load i32, ptr %9, align 4, !tbaa !39
  %49 = icmp eq i32 %48, 0
  br i1 %49, label %50, label %51

50:                                               ; preds = %47
  br label %57

51:                                               ; preds = %47
  %52 = load ptr, ptr %6, align 8, !tbaa !11
  %53 = load i32, ptr %9, align 4, !tbaa !39
  %54 = add nsw i32 %53, 1
  %55 = sext i32 %54 to i64
  %56 = getelementptr inbounds i8, ptr %52, i64 %55
  br label %57

57:                                               ; preds = %51, %50
  %58 = phi ptr [ null, %50 ], [ %56, %51 ]
  store ptr %58, ptr %4, align 8
  store i32 1, ptr %10, align 4
  br label %60

59:                                               ; preds = %43, %34
  store i32 0, ptr %10, align 4
  br label %60

60:                                               ; preds = %59, %57
  call void @llvm.lifetime.end.p0(i64 4, ptr %11) #12
  %61 = load i32, ptr %10, align 4
  switch i32 %61, label %67 [
    i32 0, label %62
  ]

62:                                               ; preds = %60
  br label %63

63:                                               ; preds = %62
  %64 = load i32, ptr %9, align 4, !tbaa !39
  %65 = add nsw i32 %64, 1
  store i32 %65, ptr %9, align 4, !tbaa !39
  br label %30, !llvm.loop !158

66:                                               ; preds = %30
  store ptr null, ptr %4, align 8
  store i32 1, ptr %10, align 4
  br label %67

67:                                               ; preds = %66, %60, %26
  call void @llvm.lifetime.end.p0(i64 4, ptr %9) #12
  call void @llvm.lifetime.end.p0(i64 4, ptr %8) #12
  %68 = load ptr, ptr %4, align 8
  ret ptr %68
}