; Function Attrs: nofree norecurse nosync nounwind memory(argmem: read) uwtable
define internal fastcc ptr @skip_tree_prefix(i32 noundef %0, ptr noundef readonly %1, i32 noundef %2) unnamed_addr #14 {
  %.not = icmp eq i32 %0, 0
  br i1 %.not, label %5, label %.preheader

.preheader:                                       ; preds = %3
  %4 = icmp sgt i32 %2, 0
  br i1 %4, label %.lr.ph.preheader, label %.loopexit

.lr.ph.preheader:                                 ; preds = %.preheader
  %wide.trip.count = zext nneg i32 %2 to i64
  br label %.lr.ph

5:                                                ; preds = %3
  %.not24 = icmp eq i32 %2, 0
  br i1 %.not24, label %9, label %6

6:                                                ; preds = %5
  %7 = load i8, ptr %1, align 1, !tbaa !53
  %8 = icmp eq i8 %7, 47
  br i1 %8, label %.loopexit, label %9

9:                                                ; preds = %6, %5
  br label %.loopexit

.lr.ph:                                           ; preds = %.lr.ph.preheader, %21
  %indvars.iv = phi i64 [ 0, %.lr.ph.preheader ], [ %indvars.iv.next, %21 ]
  %.01832 = phi i32 [ %0, %.lr.ph.preheader ], [ %.220.ph, %21 ]
  %10 = getelementptr inbounds nuw i8, ptr %1, i64 %indvars.iv
  %11 = load i8, ptr %10, align 1, !tbaa !53
  %12 = icmp eq i8 %11, 47
  br i1 %12, label %13, label %21

13:                                               ; preds = %.lr.ph
  %14 = add nsw i32 %.01832, -1
  %15 = icmp slt i32 %.01832, 2
  br i1 %15, label %16, label %21

16:                                               ; preds = %13
  %17 = getelementptr inbounds nuw i8, ptr %1, i64 %indvars.iv
  %18 = icmp eq i64 %indvars.iv, 0
  %19 = getelementptr inbounds nuw i8, ptr %17, i64 1
  %20 = select i1 %18, ptr null, ptr %19
  br label %.loopexit

21:                                               ; preds = %13, %.lr.ph
  %.220.ph = phi i32 [ %.01832, %.lr.ph ], [ %14, %13 ]
  %indvars.iv.next = add nuw nsw i64 %indvars.iv, 1
  %exitcond.not = icmp eq i64 %indvars.iv.next, %wide.trip.count
  br i1 %exitcond.not, label %.loopexit, label %.lr.ph, !llvm.loop !71

.loopexit:                                        ; preds = %21, %.preheader, %16, %9, %6
  %.0 = phi ptr [ %20, %16 ], [ %1, %9 ], [ null, %6 ], [ null, %.preheader ], [ null, %21 ]
  ret ptr %.0
}